target datalayout = "e-m:e-p270:32:32-p271:32:32-p272:64:64-i64:64-i128:128-f80:128-n8:16:32:64-S128"
target triple = "x86_64-pc-linux-gnu"

%struct.expert_field = type { i32, i32 }

@hf_ecmp_variable_name = internal global i32 0, align 4
@hf_ecmp_address_scheme_menu = internal global i32 0, align 4
@hf_ecmp_address_scheme_parameter = internal global i32 0, align 4
@hf_ecmp_address_scheme_slot = internal global i32 0, align 4
@hf_ecmp_address_scheme_null_byte_size = internal global i32 0, align 4
@ei_ecmp_parameter_addressing_scheme = internal global %struct.expert_field zeroinitializer, align 4

; Function Attrs: null_pointer_is_valid sspstrong uwtable
define internal i32 @get_address_scheme(ptr noundef %0, i32 noundef %1, i8 noundef zeroext %2, ptr noundef %3, ptr noundef %4) #0 {
  %6 = alloca ptr, align 8
  %7 = alloca i32, align 4
  %8 = alloca i8, align 1
  %9 = alloca ptr, align 8
  %10 = alloca ptr, align 8
  store ptr %0, ptr %6, align 8
  store i32 %1, ptr %7, align 4
  store i8 %2, ptr %8, align 1
  store ptr %3, ptr %9, align 8
  store ptr %4, ptr %10, align 8
  %11 = load i8, ptr %8, align 1
  %12 = zext i8 %11 to i32
  switch i32 %12, label %75 [
    i32 0, label %13
    i32 1, label %28
    i32 3, label %50
    i32 4, label %67
  ]

13:                                               ; preds = %5
  %14 = load ptr, ptr %10, align 8
  %15 = load i32, ptr @hf_ecmp_address_scheme_menu, align 4
  %16 = load ptr, ptr %9, align 8
  %17 = load i32, ptr %7, align 4
  %18 = call ptr @proto_tree_add_item(ptr noundef %14, i32 noundef %15, ptr noundef %16, i32 noundef %17, i32 noundef 2, i32 noundef 0)
  %19 = load i32, ptr %7, align 4
  %20 = add i32 %19, 2
  store i32 %20, ptr %7, align 4
  %21 = load ptr, ptr %10, align 8
  %22 = load i32, ptr @hf_ecmp_address_scheme_parameter, align 4
  %23 = load ptr, ptr %9, align 8
  %24 = load i32, ptr %7, align 4
  %25 = call ptr @proto_tree_add_item(ptr noundef %21, i32 noundef %22, ptr noundef %23, i32 noundef %24, i32 noundef 2, i32 noundef 0)
  %26 = load i32, ptr %7, align 4
  %27 = add i32 %26, 1
  store i32 %27, ptr %7, align 4
  br label %81

28:                                               ; preds = %5
  %29 = load ptr, ptr %10, align 8
  %30 = load i32, ptr @hf_ecmp_address_scheme_slot, align 4
  %31 = load ptr, ptr %9, align 8
  %32 = load i32, ptr %7, align 4
  %33 = call ptr @proto_tree_add_item(ptr noundef %29, i32 noundef %30, ptr noundef %31, i32 noundef %32, i32 noundef 1, i32 noundef 0)
  %34 = load i32, ptr %7, align 4
  %35 = add i32 %34, 1
  store i32 %35, ptr %7, align 4
  %36 = load ptr, ptr %10, align 8
  %37 = load i32, ptr @hf_ecmp_address_scheme_menu, align 4
  %38 = load ptr, ptr %9, align 8
  %39 = load i32, ptr %7, align 4
  %40 = call ptr @proto_tree_add_item(ptr noundef %36, i32 noundef %37, ptr noundef %38, i32 noundef %39, i32 noundef 2, i32 noundef 0)
  %41 = load i32, ptr %7, align 4
  %42 = add i32 %41, 2
  store i32 %42, ptr %7, align 4
  %43 = load ptr, ptr %10, align 8
  %44 = load i32, ptr @hf_ecmp_address_scheme_parameter, align 4
  %45 = load ptr, ptr %9, align 8
  %46 = load i32, ptr %7, align 4
  %47 = call ptr @proto_tree_add_item(ptr noundef %43, i32 noundef %44, ptr noundef %45, i32 noundef %46, i32 noundef 2, i32 noundef 0)
  %48 = load i32, ptr %7, align 4
  %49 = add i32 %48, 1
  store i32 %49, ptr %7, align 4
  br label %81

50:                                               ; preds = %5
  %51 = load i32, ptr %7, align 4
  %52 = add i32 %51, -1
  store i32 %52, ptr %7, align 4
  %53 = load ptr, ptr %10, align 8
  %54 = load i32, ptr @hf_ecmp_variable_name, align 4
  %55 = load ptr, ptr %9, align 8
  %56 = load i32, ptr %7, align 4
  %57 = add i32 %56, 1
  %58 = call ptr @proto_tree_add_item(ptr noundef %53, i32 noundef %54, ptr noundef %55, i32 noundef %57, i32 noundef 2, i32 noundef 0)
  %59 = load ptr, ptr %9, align 8
  %60 = load i32, ptr %7, align 4
  %61 = add i32 %60, 1
  %62 = call zeroext i16 @tvb_get_ntohs(ptr noundef %59, i32 noundef %61)
  %63 = zext i16 %62 to i32
  %64 = add i32 %63, 2
  %65 = load i32, ptr %7, align 4
  %66 = add i32 %65, %64
  store i32 %66, ptr %7, align 4
  br label %81

67:                                               ; preds = %5
  %68 = load ptr, ptr %10, align 8
  %69 = load i32, ptr @hf_ecmp_address_scheme_null_byte_size, align 4
  %70 = load ptr, ptr %9, align 8
  %71 = load i32, ptr %7, align 4
  %72 = call ptr @proto_tree_add_item(ptr noundef %68, i32 noundef %69, ptr noundef %70, i32 noundef %71, i32 noundef 1, i32 noundef 0)
  %73 = load i32, ptr %7, align 4
  %74 = add i32 %73, 1
  store i32 %74, ptr %7, align 4
  br label %81

75:                                               ; preds = %5
  %76 = load ptr, ptr %10, align 8
  %77 = load ptr, ptr %6, align 8
  %78 = load ptr, ptr %9, align 8
  %79 = load i32, ptr %7, align 4
  %80 = call ptr @proto_tree_add_expert(ptr noundef %76, ptr noundef %77, ptr noundef @ei_ecmp_parameter_addressing_scheme, ptr noundef %78, i32 noundef %79, i32 noundef 1)
  br label %81

81:                                               ; preds = %75, %67, %50, %28, %13
  %82 = load i32, ptr %7, align 4
  ret i32 %82
}