; Function Attrs: null_pointer_is_valid sspstrong uwtable
define internal fastcc i32 @get_address_scheme(ptr noundef %0, i32 noundef %1, i8 noundef zeroext %2, ptr noundef %3, ptr noundef %4) unnamed_addr #0 {
  switch i8 %2, label %34 [
    i8 0, label %6
    i8 1, label %13
    i8 3, label %23
    i8 4, label %30
  ]

6:                                                ; preds = %5
  %7 = load i32, ptr @hf_ecmp_address_scheme_menu, align 4
  %8 = tail call ptr @proto_tree_add_item(ptr noundef %4, i32 noundef %7, ptr noundef %3, i32 noundef %1, i32 noundef 2, i32 noundef 0)
  %9 = add i32 %1, 2
  %10 = load i32, ptr @hf_ecmp_address_scheme_parameter, align 4
  %11 = tail call ptr @proto_tree_add_item(ptr noundef %4, i32 noundef %10, ptr noundef %3, i32 noundef %9, i32 noundef 2, i32 noundef 0)
  %12 = add i32 %1, 3
  br label %36

13:                                               ; preds = %5
  %14 = load i32, ptr @hf_ecmp_address_scheme_slot, align 4
  %15 = tail call ptr @proto_tree_add_item(ptr noundef %4, i32 noundef %14, ptr noundef %3, i32 noundef %1, i32 noundef 1, i32 noundef 0)
  %16 = add i32 %1, 1
  %17 = load i32, ptr @hf_ecmp_address_scheme_menu, align 4
  %18 = tail call ptr @proto_tree_add_item(ptr noundef %4, i32 noundef %17, ptr noundef %3, i32 noundef %16, i32 noundef 2, i32 noundef 0)
  %19 = add i32 %1, 3
  %20 = load i32, ptr @hf_ecmp_address_scheme_parameter, align 4
  %21 = tail call ptr @proto_tree_add_item(ptr noundef %4, i32 noundef %20, ptr noundef %3, i32 noundef %19, i32 noundef 2, i32 noundef 0)
  %22 = add i32 %1, 4
  br label %36

23:                                               ; preds = %5
  %24 = load i32, ptr @hf_ecmp_variable_name, align 4
  %25 = tail call ptr @proto_tree_add_item(ptr noundef %4, i32 noundef %24, ptr noundef %3, i32 noundef %1, i32 noundef 2, i32 noundef 0)
  %26 = tail call zeroext i16 @tvb_get_ntohs(ptr noundef %3, i32 noundef %1)
  %27 = zext i16 %26 to i32
  %28 = add i32 %1, 1
  %29 = add i32 %28, %27
  br label %36

30:                                               ; preds = %5
  %31 = load i32, ptr @hf_ecmp_address_scheme_null_byte_size, align 4
  %32 = tail call ptr @proto_tree_add_item(ptr noundef %4, i32 noundef %31, ptr noundef %3, i32 noundef %1, i32 noundef 1, i32 noundef 0)
  %33 = add i32 %1, 1
  br label %36

34:                                               ; preds = %5
  %35 = tail call ptr @proto_tree_add_expert(ptr noundef %4, ptr noundef %0, ptr noundef nonnull @ei_ecmp_parameter_addressing_scheme, ptr noundef %3, i32 noundef %1, i32 noundef 1)
  br label %36

36:                                               ; preds = %34, %30, %23, %13, %6
  %.0 = phi i32 [ %1, %34 ], [ %33, %30 ], [ %29, %23 ], [ %22, %13 ], [ %12, %6 ]
  ret i32 %.0
}